target datalayout = "e-m:e-p270:32:32-p271:32:32-p272:64:64-i64:64-i128:128-f80:128-n8:16:32:64-S128"
target triple = "x86_64-unknown-linux-gnu"

@.str = private unnamed_addr constant [33 x i8] c"../qemu/migration/postcopy-ram.c\00", align 1
@incoming_postcopy_state = internal global i32 0, align 4
@__func__.postcopy_state_set = private unnamed_addr constant [19 x i8] c"postcopy_state_set\00", align 1

; Function Attrs: nounwind sspstrong uwtable
define dso_local i32 @postcopy_state_set(i32 noundef %new_state) #0 {
entry:
  %new_state.addr = alloca i32, align 4
  %tmp = alloca i32, align 4
  %tmp1 = alloca i32, align 4
  %.atomictmp = alloca i32, align 4
  %atomic-temp = alloca i32, align 4
  store i32 %new_state, ptr %new_state.addr, align 4
  br label %while.cond

while.cond:                                       ; preds = %do.end, %entry
  br i1 false, label %while.body, label %while.end

while.body:                                       ; preds = %while.cond
  br label %do.body

do.body:                                          ; preds = %while.body
  call void @g_assertion_message_expr(ptr noundef null, ptr noundef @.str, i32 noundef 1576, ptr noundef @__func__.postcopy_state_set, ptr noundef null) #12
  unreachable

do.end:                                           ; No predecessors!
  br label %while.cond

while.end:                                        ; preds = %while.cond
  %0 = load i32, ptr %new_state.addr, align 4
  store i32 %0, ptr %.atomictmp, align 4
  %1 = load i32, ptr %.atomictmp, align 4
  %2 = atomicrmw xchg ptr @incoming_postcopy_state, i32 %1 seq_cst, align 4
  store i32 %2, ptr %atomic-temp, align 4
  %3 = load i32, ptr %atomic-temp, align 4
  store i32 %3, ptr %tmp1, align 4
  %4 = load i32, ptr %tmp1, align 4
  store i32 %4, ptr %tmp, align 4
  %5 = load i32, ptr %tmp, align 4
  ret i32 %5
}

; Function Attrs: nounwind sspstrong uwtable
define dso_local i32 @postcopy_ram_prepare_discard(ptr noundef %mis) #0 {
entry:
  %retval = alloca i32, align 4
  %mis.addr = alloca ptr, align 8
  store ptr %mis, ptr %mis.addr, align 8
  %0 = load ptr, ptr %mis.addr, align 8
  %call = call i32 @foreach_not_ignored_block(ptr noundef @nhp_range, ptr noundef %0)
  %tobool = icmp ne i32 %call, 0
  br i1 %tobool, label %if.then, label %if.end

if.then:                                          ; preds = %entry
  store i32 -1, ptr %retval, align 4
  br label %return

if.end:                                           ; preds = %entry
  %call1 = call i32 @postcopy_state_set(i32 noundef 2)
  store i32 0, ptr %retval, align 4
  br label %return

return:                                           ; preds = %if.end, %if.then
  %1 = load i32, ptr %retval, align 4
  ret i32 %1
}