; Function Attrs: nounwind sspstrong uwtable
define dso_local range(i32 -1, 1) i32 @postcopy_ram_prepare_discard(ptr noundef %mis) local_unnamed_addr #0 {
entry:
  %call = tail call i32 @foreach_not_ignored_block(ptr noundef nonnull @nhp_range, ptr noundef %mis) #16
  %tobool.not = icmp eq i32 %call, 0
  br i1 %tobool.not, label %if.end, label %return

if.end:                                           ; preds = %entry
  %0 = atomicrmw xchg ptr @incoming_postcopy_state, i32 2 seq_cst, align 4
  br label %return

return:                                           ; preds = %entry, %if.end
  %retval.0 = phi i32 [ 0, %if.end ], [ -1, %entry ]
  ret i32 %retval.0
}